target datalayout = "e-m:e-p270:32:32-p271:32:32-p272:64:64-i64:64-i128:128-f80:128-n8:16:32:64-S128"
target triple = "x86_64-pc-linux-gnu"

; Function Attrs: mustprogress nounwind uwtable
define hidden noundef i32 @_ZNSt3__117__merge_exponentsB8ne210000Elli(i64 noundef %0, i64 noundef %1, i32 noundef %2) #4 {
  %4 = alloca i32, align 4
  %5 = alloca i64, align 8
  %6 = alloca i64, align 8
  %7 = alloca i32, align 4
  %8 = alloca i64, align 8
  %9 = alloca i32, align 4
  store i64 %0, ptr %5, align 8, !tbaa !9
  store i64 %1, ptr %6, align 8, !tbaa !9
  store i32 %2, ptr %7, align 4, !tbaa !21
  call void @llvm.lifetime.start.p0(i64 8, ptr %8) #15
  %10 = load i64, ptr %5, align 8, !tbaa !9
  %11 = load i64, ptr %6, align 8, !tbaa !9
  %12 = add nsw i64 %10, %11
  store i64 %12, ptr %8, align 8, !tbaa !9
  %13 = load i64, ptr %8, align 8, !tbaa !9
  %14 = load i32, ptr %7, align 4, !tbaa !21
  %15 = sext i32 %14 to i64
  %16 = icmp sgt i64 %13, %15
  br i1 %16, label %17, label %19

17:                                               ; preds = %3
  %18 = load i32, ptr %7, align 4, !tbaa !21
  store i32 %18, ptr %4, align 4
  store i32 1, ptr %9, align 4
  br label %31

19:                                               ; preds = %3
  %20 = load i64, ptr %8, align 8, !tbaa !9
  %21 = load i32, ptr %7, align 4, !tbaa !21
  %22 = sub nsw i32 0, %21
  %23 = sext i32 %22 to i64
  %24 = icmp slt i64 %20, %23
  br i1 %24, label %25, label %28

25:                                               ; preds = %19
  %26 = load i32, ptr %7, align 4, !tbaa !21
  %27 = sub nsw i32 0, %26
  store i32 %27, ptr %4, align 4
  store i32 1, ptr %9, align 4
  br label %31

28:                                               ; preds = %19
  %29 = load i64, ptr %8, align 8, !tbaa !9
  %30 = trunc i64 %29 to i32
  store i32 %30, ptr %4, align 4
  store i32 1, ptr %9, align 4
  br label %31

31:                                               ; preds = %28, %25, %17
  call void @llvm.lifetime.end.p0(i64 8, ptr %8) #15
  %32 = load i32, ptr %4, align 4
  ret i32 %32
}