; Function Attrs: mustprogress nofree norecurse nosync nounwind willreturn memory(none) uwtable
define hidden noundef i32 @_ZNSt3__117__merge_exponentsB8ne210000Elli(i64 noundef %0, i64 noundef %1, i32 noundef %2) local_unnamed_addr #2 {
  %4 = add nsw i64 %1, %0
  %5 = sext i32 %2 to i64
  %6 = icmp sgt i64 %4, %5
  %7 = sub nsw i32 0, %2
  %8 = sext i32 %7 to i64
  %spec.select11 = tail call i64 @llvm.smax.i64(i64 %4, i64 %8)
  %spec.select = trunc i64 %spec.select11 to i32
  %.0 = select i1 %6, i32 %2, i32 %spec.select
  ret i32 %.0
}